; Function Attrs: nounwind uwtable
define ptr @l_Lean_Meta_Grind_Arith_Cutsat_propagateDvd___lambda__1(ptr noundef %0, ptr noundef %1, ptr noundef %2, ptr noundef %3, ptr noundef %4, ptr noundef %5, ptr noundef %6, ptr noundef %7, ptr noundef %8, ptr noundef %9, ptr noundef %10) local_unnamed_addr #1 {
  %12 = load ptr, ptr @l_Lean_Meta_Grind_Arith_Cutsat_propagateDvd___lambda__1___closed__1, align 8, !tbaa !6
  %13 = tail call zeroext i8 @l_Lean_Expr_isConstOf(ptr noundef %1, ptr noundef %12) #5
  %14 = icmp eq i8 %13, 0
  br i1 %14, label %15, label %17

15:                                               ; preds = %11
  %16 = tail call ptr @l_Lean_Meta_Grind_Arith_Cutsat_propagateIntDvd(ptr noundef %0, ptr noundef %2, ptr noundef %3, ptr noundef %4, ptr noundef %5, ptr noundef %6, ptr noundef %7, ptr noundef %8, ptr noundef %9, ptr noundef %10)
  br label %19

17:                                               ; preds = %11
  %18 = tail call ptr @l_Lean_Meta_Grind_Arith_Cutsat_propagateNatDvd(ptr noundef %0, ptr noundef %2, ptr noundef %3, ptr noundef %4, ptr noundef %5, ptr noundef %6, ptr noundef %7, ptr noundef %8, ptr noundef %9, ptr noundef %10)
  br label %19

19:                                               ; preds = %17, %15
  %.0 = phi ptr [ %16, %15 ], [ %18, %17 ]
  ret ptr %.0
}